target datalayout = "e-m:e-p270:32:32-p271:32:32-p272:64:64-i64:64-i128:128-f80:128-n8:16:32:64-S128"
target triple = "x86_64-unknown-linux-gnu"

%"class.google::protobuf::io::GzipInputStream" = type { %"class.google::protobuf::io::ZeroCopyInputStream", i32, ptr, %struct.z_stream_s, i32, ptr, ptr, i64, i64 }
%"class.google::protobuf::io::ZeroCopyInputStream" = type { ptr }
%struct.z_stream_s = type { ptr, i32, i64, ptr, i32, i64, ptr, ptr, ptr, ptr, ptr, i32, i64, i64 }

@.str.3 = private unnamed_addr constant [7 x i8] c"1.2.11\00", align 1

; Function Attrs: mustprogress uwtable
define internal noundef i32 @_ZN6google8protobuf2ioL20internalInflateInit2EP10z_stream_sNS1_15GzipInputStream6FormatE(ptr noundef %zcontext, i32 noundef %format) #4 {
entry:
  %zcontext.addr = alloca ptr, align 8
  %format.addr = alloca i32, align 4
  %windowBitsFormat = alloca i32, align 4
  store ptr %zcontext, ptr %zcontext.addr, align 8
  store i32 %format, ptr %format.addr, align 4
  store i32 0, ptr %windowBitsFormat, align 4
  %0 = load i32, ptr %format.addr, align 4
  switch i32 %0, label %sw.epilog [
    i32 1, label %sw.bb
    i32 0, label %sw.bb1
    i32 2, label %sw.bb2
  ]

sw.bb:                                            ; preds = %entry
  store i32 16, ptr %windowBitsFormat, align 4
  br label %sw.epilog

sw.bb1:                                           ; preds = %entry
  store i32 32, ptr %windowBitsFormat, align 4
  br label %sw.epilog

sw.bb2:                                           ; preds = %entry
  store i32 0, ptr %windowBitsFormat, align 4
  br label %sw.epilog

sw.epilog:                                        ; preds = %sw.bb2, %sw.bb1, %sw.bb, %entry
  %1 = load ptr, ptr %zcontext.addr, align 8
  %2 = load i32, ptr %windowBitsFormat, align 4
  %or = or i32 15, %2
  %call = call i32 @inflateInit2_(ptr noundef %1, i32 noundef %or, ptr noundef @.str.3, i32 noundef 112)
  ret i32 %call
}

; Function Attrs: mustprogress uwtable
define noundef i32 @_ZN6google8protobuf2io15GzipInputStream7InflateEi(ptr noundef nonnull align 8 dereferenceable(176) %this, i32 noundef %flush) #4 align 2 {
entry:
  %retval = alloca i32, align 4
  %this.addr = alloca ptr, align 8
  %flush.addr = alloca i32, align 4
  %in = alloca ptr, align 8
  %in_size = alloca i32, align 4
  %first = alloca i8, align 1
  %ok = alloca i8, align 1
  %error = alloca i32, align 4
  %error32 = alloca i32, align 4
  store ptr %this, ptr %this.addr, align 8
  store i32 %flush, ptr %flush.addr, align 4
  %this1 = load ptr, ptr %this.addr, align 8
  %zerror_ = getelementptr inbounds %"class.google::protobuf::io::GzipInputStream", ptr %this1, i32 0, i32 4
  %0 = load i32, ptr %zerror_, align 8
  %cmp = icmp eq i32 %0, 0
  br i1 %cmp, label %land.lhs.true, label %if.else

land.lhs.true:                                    ; preds = %entry
  %zcontext_ = getelementptr inbounds %"class.google::protobuf::io::GzipInputStream", ptr %this1, i32 0, i32 3
  %avail_out = getelementptr inbounds %struct.z_stream_s, ptr %zcontext_, i32 0, i32 4
  %1 = load i32, ptr %avail_out, align 8
  %cmp2 = icmp eq i32 %1, 0
  br i1 %cmp2, label %if.then, label %if.else

if.then:                                          ; preds = %land.lhs.true
  br label %if.end26

if.else:                                          ; preds = %land.lhs.true, %entry
  %zcontext_3 = getelementptr inbounds %"class.google::protobuf::io::GzipInputStream", ptr %this1, i32 0, i32 3
  %avail_in = getelementptr inbounds %struct.z_stream_s, ptr %zcontext_3, i32 0, i32 1
  %2 = load i32, ptr %avail_in, align 8
  %cmp4 = icmp eq i32 %2, 0
  br i1 %cmp4, label %if.then5, label %if.end25

if.then5:                                         ; preds = %if.else
  %zcontext_6 = getelementptr inbounds %"class.google::protobuf::io::GzipInputStream", ptr %this1, i32 0, i32 3
  %next_in = getelementptr inbounds %struct.z_stream_s, ptr %zcontext_6, i32 0, i32 0
  %3 = load ptr, ptr %next_in, align 8
  %cmp7 = icmp eq ptr %3, null
  %frombool = zext i1 %cmp7 to i8
  store i8 %frombool, ptr %first, align 1
  %sub_stream_ = getelementptr inbounds %"class.google::protobuf::io::GzipInputStream", ptr %this1, i32 0, i32 2
  %4 = load ptr, ptr %sub_stream_, align 8
  %vtable = load ptr, ptr %4, align 8
  %vfn = getelementptr inbounds ptr, ptr %vtable, i64 2
  %5 = load ptr, ptr %vfn, align 8
  %call = call noundef zeroext i1 %5(ptr noundef nonnull align 8 dereferenceable(8) %4, ptr noundef %in, ptr noundef %in_size)
  %frombool8 = zext i1 %call to i8
  store i8 %frombool8, ptr %ok, align 1
  %6 = load i8, ptr %ok, align 1
  %tobool = trunc i8 %6 to i1
  br i1 %tobool, label %if.end, label %if.then9

if.then9:                                         ; preds = %if.then5
  %zcontext_10 = getelementptr inbounds %"class.google::protobuf::io::GzipInputStream", ptr %this1, i32 0, i32 3
  %next_out = getelementptr inbounds %struct.z_stream_s, ptr %zcontext_10, i32 0, i32 3
  store ptr null, ptr %next_out, align 8
  %zcontext_11 = getelementptr inbounds %"class.google::protobuf::io::GzipInputStream", ptr %this1, i32 0, i32 3
  %avail_out12 = getelementptr inbounds %struct.z_stream_s, ptr %zcontext_11, i32 0, i32 4
  store i32 0, ptr %avail_out12, align 8
  store i32 1, ptr %retval, align 4
  br label %return

if.end:                                           ; preds = %if.then5
  %7 = load ptr, ptr %in, align 8
  %zcontext_13 = getelementptr inbounds %"class.google::protobuf::io::GzipInputStream", ptr %this1, i32 0, i32 3
  %next_in14 = getelementptr inbounds %struct.z_stream_s, ptr %zcontext_13, i32 0, i32 0
  store ptr %7, ptr %next_in14, align 8
  %8 = load i32, ptr %in_size, align 4
  %zcontext_15 = getelementptr inbounds %"class.google::protobuf::io::GzipInputStream", ptr %this1, i32 0, i32 3
  %avail_in16 = getelementptr inbounds %struct.z_stream_s, ptr %zcontext_15, i32 0, i32 1
  store i32 %8, ptr %avail_in16, align 8
  %9 = load i8, ptr %first, align 1
  %tobool17 = trunc i8 %9 to i1
  br i1 %tobool17, label %if.then18, label %if.end24

if.then18:                                        ; preds = %if.end
  %zcontext_19 = getelementptr inbounds %"class.google::protobuf::io::GzipInputStream", ptr %this1, i32 0, i32 3
  %format_ = getelementptr inbounds %"class.google::protobuf::io::GzipInputStream", ptr %this1, i32 0, i32 1
  %10 = load i32, ptr %format_, align 8
  %call20 = call noundef i32 @_ZN6google8protobuf2ioL20internalInflateInit2EP10z_stream_sNS1_15GzipInputStream6FormatE(ptr noundef %zcontext_19, i32 noundef %10)
  store i32 %call20, ptr %error, align 4
  %11 = load i32, ptr %error, align 4
  %cmp21 = icmp ne i32 %11, 0
  br i1 %cmp21, label %if.then22, label %if.end23

if.then22:                                        ; preds = %if.then18
  %12 = load i32, ptr %error, align 4
  store i32 %12, ptr %retval, align 4
  br label %return

if.end23:                                         ; preds = %if.then18
  br label %if.end24

if.end24:                                         ; preds = %if.end23, %if.end
  br label %if.end25

if.end25:                                         ; preds = %if.end24, %if.else
  br label %if.end26

if.end26:                                         ; preds = %if.end25, %if.then
  %output_buffer_ = getelementptr inbounds %"class.google::protobuf::io::GzipInputStream", ptr %this1, i32 0, i32 5
  %13 = load ptr, ptr %output_buffer_, align 8
  %zcontext_27 = getelementptr inbounds %"class.google::protobuf::io::GzipInputStream", ptr %this1, i32 0, i32 3
  %next_out28 = getelementptr inbounds %struct.z_stream_s, ptr %zcontext_27, i32 0, i32 3
  store ptr %13, ptr %next_out28, align 8
  %output_buffer_length_ = getelementptr inbounds %"class.google::protobuf::io::GzipInputStream", ptr %this1, i32 0, i32 7
  %14 = load i64, ptr %output_buffer_length_, align 8
  %conv = trunc i64 %14 to i32
  %zcontext_29 = getelementptr inbounds %"class.google::protobuf::io::GzipInputStream", ptr %this1, i32 0, i32 3
  %avail_out30 = getelementptr inbounds %struct.z_stream_s, ptr %zcontext_29, i32 0, i32 4
  store i32 %conv, ptr %avail_out30, align 8
  %output_buffer_31 = getelementptr inbounds %"class.google::protobuf::io::GzipInputStream", ptr %this1, i32 0, i32 5
  %15 = load ptr, ptr %output_buffer_31, align 8
  %output_position_ = getelementptr inbounds %"class.google::protobuf::io::GzipInputStream", ptr %this1, i32 0, i32 6
  store ptr %15, ptr %output_position_, align 8
  %zcontext_33 = getelementptr inbounds %"class.google::protobuf::io::GzipInputStream", ptr %this1, i32 0, i32 3
  %16 = load i32, ptr %flush.addr, align 4
  %call34 = call i32 @inflate(ptr noundef %zcontext_33, i32 noundef %16)
  store i32 %call34, ptr %error32, align 4
  %17 = load i32, ptr %error32, align 4
  store i32 %17, ptr %retval, align 4
  br label %return

return:                                           ; preds = %if.end26, %if.then22, %if.then9
  %18 = load i32, ptr %retval, align 4
  ret i32 %18
}