; Function Attrs: mustprogress uwtable
define noundef i32 @_ZN6google8protobuf2io15GzipInputStream7InflateEi(ptr noundef nonnull align 8 dereferenceable(176) %this, i32 noundef %flush) local_unnamed_addr #3 align 2 {
entry:
  %in = alloca ptr, align 8
  %in_size = alloca i32, align 4
  %zerror_ = getelementptr inbounds i8, ptr %this, i64 136
  %0 = load i32, ptr %zerror_, align 8
  %cmp = icmp eq i32 %0, 0
  %avail_out = getelementptr inbounds i8, ptr %this, i64 56
  %1 = load i32, ptr %avail_out, align 8
  %cmp2 = icmp eq i32 %1, 0
  %or.cond = select i1 %cmp, i1 %cmp2, i1 false
  br i1 %or.cond, label %if.end26, label %if.else

if.else:                                          ; preds = %entry
  %zcontext_3 = getelementptr inbounds i8, ptr %this, i64 24
  %avail_in = getelementptr inbounds i8, ptr %this, i64 32
  %2 = load i32, ptr %avail_in, align 8
  %cmp4 = icmp eq i32 %2, 0
  br i1 %cmp4, label %if.then5, label %if.end26

if.then5:                                         ; preds = %if.else
  %3 = load ptr, ptr %zcontext_3, align 8
  %sub_stream_ = getelementptr inbounds i8, ptr %this, i64 16
  %4 = load ptr, ptr %sub_stream_, align 8
  %vtable = load ptr, ptr %4, align 8
  %vfn = getelementptr inbounds i8, ptr %vtable, i64 16
  %5 = load ptr, ptr %vfn, align 8
  %call = call noundef zeroext i1 %5(ptr noundef nonnull align 8 dereferenceable(8) %4, ptr noundef nonnull %in, ptr noundef nonnull %in_size)
  br i1 %call, label %if.end, label %if.then9

if.then9:                                         ; preds = %if.then5
  %next_out = getelementptr inbounds i8, ptr %this, i64 48
  store ptr null, ptr %next_out, align 8
  store i32 0, ptr %avail_out, align 8
  br label %return

if.end:                                           ; preds = %if.then5
  %cmp7 = icmp eq ptr %3, null
  %6 = load ptr, ptr %in, align 8
  store ptr %6, ptr %zcontext_3, align 8
  %7 = load i32, ptr %in_size, align 4
  store i32 %7, ptr %avail_in, align 8
  br i1 %cmp7, label %if.then18, label %if.end26

if.then18:                                        ; preds = %if.end
  %format_ = getelementptr inbounds i8, ptr %this, i64 8
  %8 = load i32, ptr %format_, align 8
  %switch.selectcmp.i = icmp eq i32 %8, 0
  %switch.select.i = select i1 %switch.selectcmp.i, i32 47, i32 15
  %switch.selectcmp1.i = icmp eq i32 %8, 1
  %switch.select2.i = select i1 %switch.selectcmp1.i, i32 31, i32 %switch.select.i
  %call.i = call noundef i32 @inflateInit2_(ptr noundef nonnull %zcontext_3, i32 noundef %switch.select2.i, ptr noundef nonnull @.str.3, i32 noundef 112)
  %cmp21.not = icmp eq i32 %call.i, 0
  br i1 %cmp21.not, label %if.end26, label %return

if.end26:                                         ; preds = %entry, %if.else, %if.then18, %if.end
  %output_buffer_ = getelementptr inbounds i8, ptr %this, i64 144
  %9 = load ptr, ptr %output_buffer_, align 8
  %zcontext_27 = getelementptr inbounds i8, ptr %this, i64 24
  %next_out28 = getelementptr inbounds i8, ptr %this, i64 48
  store ptr %9, ptr %next_out28, align 8
  %output_buffer_length_ = getelementptr inbounds i8, ptr %this, i64 160
  %10 = load i64, ptr %output_buffer_length_, align 8
  %conv = trunc i64 %10 to i32
  store i32 %conv, ptr %avail_out, align 8
  %output_position_ = getelementptr inbounds i8, ptr %this, i64 152
  store ptr %9, ptr %output_position_, align 8
  %call34 = call i32 @inflate(ptr noundef nonnull %zcontext_27, i32 noundef %flush)
  br label %return

return:                                           ; preds = %if.then18, %if.end26, %if.then9
  %retval.0 = phi i32 [ %call34, %if.end26 ], [ 1, %if.then9 ], [ %call.i, %if.then18 ]
  ret i32 %retval.0
}